; Function Attrs: mustprogress nounwind uwtable
define internal void @_ZN5faiss12_GLOBAL__N_111IOHookTableD2Ev(ptr noundef nonnull readonly align 8 captures(none) dereferenceable(24) %0) unnamed_addr #1 align 2 personality ptr @__gxx_personality_v0 {
  %2 = load ptr, ptr %0, align 8, !tbaa !18
  %3 = getelementptr inbounds nuw i8, ptr %0, i64 8
  %4 = load ptr, ptr %3, align 8, !tbaa !18
  %.not7 = icmp eq ptr %2, %4
  br i1 %.not7, label %._crit_edge, label %.lr.ph

._crit_edge.loopexit:                             ; preds = %18
  %.pre = load ptr, ptr %0, align 8, !tbaa !20
  br label %._crit_edge

._crit_edge:                                      ; preds = %._crit_edge.loopexit, %1
  %5 = phi ptr [ %.pre, %._crit_edge.loopexit ], [ %2, %1 ]
  %.not.i.i.i = icmp eq ptr %5, null
  br i1 %.not.i.i.i, label %_ZNSt6vectorIPN5faiss19InvertedListsIOHookESaIS2_EED2Ev.exit, label %6

6:                                                ; preds = %._crit_edge
  %7 = getelementptr inbounds nuw i8, ptr %0, i64 16
  %8 = load ptr, ptr %7, align 8, !tbaa !22
  %9 = ptrtoint ptr %8 to i64
  %10 = ptrtoint ptr %5 to i64
  %11 = sub i64 %9, %10
  tail call void @_ZdlPvm(ptr noundef nonnull %5, i64 noundef %11) #22
  br label %_ZNSt6vectorIPN5faiss19InvertedListsIOHookESaIS2_EED2Ev.exit

_ZNSt6vectorIPN5faiss19InvertedListsIOHookESaIS2_EED2Ev.exit: ; preds = %._crit_edge, %6
  ret void

.lr.ph:                                           ; preds = %1, %18
  %.sroa.04.08 = phi ptr [ %19, %18 ], [ %2, %1 ]
  %12 = load ptr, ptr %.sroa.04.08, align 8, !tbaa !23
  %13 = icmp eq ptr %12, null
  br i1 %13, label %18, label %14

14:                                               ; preds = %.lr.ph
  %15 = load ptr, ptr %12, align 8, !tbaa !15
  %16 = getelementptr inbounds nuw i8, ptr %15, i64 32
  %17 = load ptr, ptr %16, align 8
  tail call void %17(ptr noundef nonnull align 8 dereferenceable(72) %12) #20
  br label %18

18:                                               ; preds = %14, %.lr.ph
  %19 = getelementptr inbounds nuw i8, ptr %.sroa.04.08, i64 8
  %.not = icmp eq ptr %19, %4
  br i1 %.not, label %._crit_edge.loopexit, label %.lr.ph
}